; Function Attrs: nounwind uwtable
define zeroext range(i8 0, 2) i8 @l_Lean_Meta_mkSimpCongrTheorem_onlyMVarsAt(ptr noundef %0, ptr noundef %1) local_unnamed_addr #1 {
  tail call void @lean_inc_heartbeat() #5
  %3 = tail call noalias ptr @mi_malloc_small(i64 noundef 32) #5
  %4 = icmp eq ptr %3, null
  br i1 %4, label %5, label %lean_alloc_closure.exit

5:                                                ; preds = %2
  tail call void @lean_internal_panic_out_of_memory() #6
  unreachable

lean_alloc_closure.exit:                          ; preds = %2
  %6 = getelementptr inbounds nuw i8, ptr %3, i64 4
  store i32 1, ptr %3, align 4, !tbaa !4
  store i32 -184549344, ptr %6, align 4
  %7 = getelementptr inbounds nuw i8, ptr %3, i64 8
  store ptr @l_Lean_Meta_mkSimpCongrTheorem_onlyMVarsAt___lambda__1___boxed, ptr %7, align 8, !tbaa !9
  %8 = getelementptr inbounds nuw i8, ptr %3, i64 16
  store i16 2, ptr %8, align 8, !tbaa !14
  %9 = getelementptr inbounds nuw i8, ptr %3, i64 18
  store i16 1, ptr %9, align 2, !tbaa !14
  %10 = getelementptr inbounds nuw i8, ptr %3, i64 24
  store ptr %1, ptr %10, align 8, !tbaa !9
  %11 = tail call ptr @lean_find_expr(ptr noundef nonnull %3, ptr noundef %0) #5
  %12 = ptrtoint ptr %3 to i64
  %13 = and i64 %12, 1
  %.not = icmp eq i64 %13, 0
  br i1 %.not, label %14, label %lean_dec.exit9

14:                                               ; preds = %lean_alloc_closure.exit
  %15 = load i32, ptr %3, align 4, !tbaa !4
  %16 = icmp sgt i32 %15, 1
  br i1 %16, label %17, label %19, !prof !11

17:                                               ; preds = %14
  %18 = add nsw i32 %15, -1
  store i32 %18, ptr %3, align 4, !tbaa !4
  br label %lean_dec.exit9

19:                                               ; preds = %14
  %.not.i = icmp eq i32 %15, 0
  br i1 %.not.i, label %lean_dec.exit9, label %20

20:                                               ; preds = %19
  tail call void @lean_dec_ref_cold(ptr noundef nonnull %3) #5
  br label %lean_dec.exit9

lean_dec.exit9:                                   ; preds = %20, %19, %17, %lean_alloc_closure.exit
  %21 = ptrtoint ptr %11 to i64
  %22 = and i64 %21, 1
  %.not.i12 = icmp eq i64 %22, 0
  br i1 %.not.i12, label %lean_obj_tag.exit.thread, label %lean_obj_tag.exit

lean_obj_tag.exit:                                ; preds = %lean_dec.exit9
  %23 = and i64 %21, 8589934590
  %24 = icmp eq i64 %23, 0
  %spec.select = zext i1 %24 to i8
  br label %lean_dec.exit

lean_obj_tag.exit.thread:                         ; preds = %lean_dec.exit9
  %25 = getelementptr i8, ptr %11, i64 4
  %.val.i = load i32, ptr %25, align 4
  %26 = icmp ult i32 %.val.i, 16777216
  br i1 %26, label %lean_dec.exit, label %.thread

.thread:                                          ; preds = %lean_obj_tag.exit.thread
  %27 = load i32, ptr %11, align 4, !tbaa !4
  %28 = icmp sgt i32 %27, 1
  br i1 %28, label %29, label %31, !prof !11

29:                                               ; preds = %.thread
  %30 = add nsw i32 %27, -1
  store i32 %30, ptr %11, align 4, !tbaa !4
  br label %lean_dec.exit

31:                                               ; preds = %.thread
  %.not.i10 = icmp eq i32 %27, 0
  br i1 %.not.i10, label %lean_dec.exit, label %32

32:                                               ; preds = %31
  tail call void @lean_dec_ref_cold(ptr noundef nonnull %11) #5
  br label %lean_dec.exit

lean_dec.exit:                                    ; preds = %lean_obj_tag.exit, %29, %31, %32, %lean_obj_tag.exit.thread
  %.0 = phi i8 [ 1, %lean_obj_tag.exit.thread ], [ 0, %32 ], [ 0, %31 ], [ 0, %29 ], [ %spec.select, %lean_obj_tag.exit ]
  ret i8 %.0
}